; Function Attrs: mustprogress nounwind uwtable
define hidden noundef ptr @_ZNK8VPointer15register_if_newEP4Node(ptr nocapture noundef nonnull readonly align 8 dereferenceable(64) %0, ptr noundef %1) local_unnamed_addr #0 align 2 {
  %3 = getelementptr inbounds i8, ptr %0, i64 8
  %4 = load ptr, ptr %3, align 8
  %5 = load ptr, ptr %4, align 8
  %6 = getelementptr inbounds i8, ptr %5, i64 56
  %7 = load ptr, ptr %6, align 8
  %8 = getelementptr inbounds i8, ptr %7, i64 32
  %9 = load ptr, ptr %8, align 8
  %10 = tail call noundef ptr @_ZN8NodeHash16hash_find_insertEP4Node(ptr noundef nonnull align 8 dereferenceable(40) %9, ptr noundef %1) #13
  %.not = icmp eq ptr %10, null
  br i1 %.not, label %12, label %11

11:                                               ; preds = %2
  tail call void @_ZN4Node8destructEP11PhaseValues(ptr noundef nonnull align 8 dereferenceable(52) %1, ptr noundef nonnull %7) #13
  br label %18

12:                                               ; preds = %2
  %13 = load ptr, ptr %3, align 8
  %14 = load ptr, ptr %13, align 8
  %15 = tail call noundef ptr @_ZN14PhaseIdealLoop14get_early_ctrlEP4Node(ptr noundef nonnull align 8 dereferenceable(237) %14, ptr noundef %1) #13
  %16 = load ptr, ptr %3, align 8
  %17 = load ptr, ptr %16, align 8
  tail call void @_ZN14PhaseIdealLoop17register_new_nodeEP4NodeS1_(ptr noundef nonnull align 8 dereferenceable(237) %17, ptr noundef %1, ptr noundef %15) #13
  br label %18

18:                                               ; preds = %12, %11
  %.0 = phi ptr [ %10, %11 ], [ %1, %12 ]
  ret ptr %.0
}